(dp0
V/home/jeff/Desktop/opencount/opencount/test-ballots/1side_1template/simple_durant/votedballots/04.png
p1
(lp2
g1
asV/home/jeff/Desktop/opencount/opencount/test-ballots/1side_1template/simple_durant/votedballots/05.png
p3
(lp4
g3
asV/home/jeff/Desktop/opencount/opencount/test-ballots/1side_1template/simple_durant/votedballots/06.png
p5
(lp6
g5
asV/home/jeff/Desktop/opencount/opencount/test-ballots/1side_1template/simple_durant/votedballots/07.png
p7
(lp8
g7
asV/home/jeff/Desktop/opencount/opencount/test-ballots/1side_1template/simple_durant/votedballots/01.png
p9
(lp10
g9
asV/home/jeff/Desktop/opencount/opencount/test-ballots/1side_1template/simple_durant/votedballots/02.png
p11
(lp12
g11
asV/home/jeff/Desktop/opencount/opencount/test-ballots/1side_1template/simple_durant/votedballots/03.png
p13
(lp14
g13
asV/home/jeff/Desktop/opencount/opencount/test-ballots/1side_1template/simple_durant/votedballots/12.png
p15
(lp16
g15
asV/home/jeff/Desktop/opencount/opencount/test-ballots/1side_1template/simple_durant/votedballots/11.png
p17
(lp18
g17
asV/home/jeff/Desktop/opencount/opencount/test-ballots/1side_1template/simple_durant/votedballots/10.png
p19
(lp20
g19
asV/home/jeff/Desktop/opencount/opencount/test-ballots/1side_1template/simple_durant/votedballots/08.png
p21
(lp22
g21
asV/home/jeff/Desktop/opencount/opencount/test-ballots/1side_1template/simple_durant/votedballots/09.png
p23
(lp24
g23
as.