((dp0
(I0
(I92
I1375
I518
I1704
tp1
tp2
(I0
I0
tp3
s(I0
(I92
I798
I518
I1368
tp4
tp5
(I0
I1
tp6
s(dp7
g6
g5
sg3
g2
s(dp8
g6
(dp9
g6
(lp10
(I0
I0
tp11
a(I1
I1
tp12
a(I2
I2
tp13
a(I3
I3
tp14
a(I4
I4
tp15
a(I5
I5
tp16
a(I6
I6
tp17
assg3
(dp18
g3
(lp19
(I0
I0
tp20
a(I1
I1
tp21
ass(dp22
g6
g6
sg3
g3
s(lp23
(lp24
g6
aa(lp25
g3
aa(lp26
(lp27
((I0
(lp28
g4
a(lp29
(I00
S''
p30
tp31
a(I01
g30
tp32
a(I01
g30
tp33
a(I01
g30
tp34
a(I01
g30
tp35
a(I01
g30
tp36
a(I01
g30
tp37
a(I01
g30
tp38
atp39
g10
tp40
aa(lp41
((I0
(lp42
g1
a(lp43
(I00
g30
tp44
a(I01
g30
tp45
a(I01
g30
tp46
atp47
g19
tp48
aa(lp49
(lp50
(I0
g4
(lp51
g31
ag32
ag33
ag34
ag35
ag36
ag37
ag38
atp52
a(I0
g1
(lp53
g44
ag45
ag46
atp54
aa(lp55
(lp56
tp57
.