((dp0
(I0
I1
tp1
(lp2
VDirector
p3
aVRon Alpen
p4
aVRuss Paustian
p5
aVBarbara Reasner
p6
aVRichard Stoltenberg
p7
aVWritein
p8
aVWritein
p9
aVWritein
p10
as(I0
I0
tp11
(lp12
VFour Year Term
p13
aVMichell Garvin
p14
aVFillin
p15
as(dp16
(I0
I1
tp17
I1
s(I0
I0
tp18
I1
s(lp19
(lp20
(I0
(I92
I798
I518
I1368
tp21
(lp22
(I00
S''
p23
tp24
a(I01
g23
tp25
a(I01
g23
tp26
a(I01
g23
tp27
a(I01
g23
tp28
a(I01
g23
tp29
a(I01
g23
tp30
a(I01
g23
tp31
atp32
a(I0
(I92
I1375
I518
I1704
tp33
(lp34
(I00
g23
tp35
a(I01
g23
tp36
a(I01
g23
tp37
atp38
aatp39
.