(dp0
V/home/jeff/Desktop/opencount/opencount/test-ballots/1side_1template/simple_durant/votedballots/04.png
p1
g1
sV/home/jeff/Desktop/opencount/opencount/test-ballots/1side_1template/simple_durant/votedballots/05.png
p2
g2
sV/home/jeff/Desktop/opencount/opencount/test-ballots/1side_1template/simple_durant/votedballots/06.png
p3
g3
sV/home/jeff/Desktop/opencount/opencount/test-ballots/1side_1template/simple_durant/votedballots/07.png
p4
g4
sV/home/jeff/Desktop/opencount/opencount/test-ballots/1side_1template/simple_durant/votedballots/01.png
p5
g5
sV/home/jeff/Desktop/opencount/opencount/test-ballots/1side_1template/simple_durant/votedballots/02.png
p6
g6
sV/home/jeff/Desktop/opencount/opencount/test-ballots/1side_1template/simple_durant/votedballots/03.png
p7
g7
sV/home/jeff/Desktop/opencount/opencount/test-ballots/1side_1template/simple_durant/votedballots/12.png
p8
g8
sV/home/jeff/Desktop/opencount/opencount/test-ballots/1side_1template/simple_durant/votedballots/11.png
p9
g9
sV/home/jeff/Desktop/opencount/opencount/test-ballots/1side_1template/simple_durant/votedballots/10.png
p10
g10
sV/home/jeff/Desktop/opencount/opencount/test-ballots/1side_1template/simple_durant/votedballots/08.png
p11
g11
sV/home/jeff/Desktop/opencount/opencount/test-ballots/1side_1template/simple_durant/votedballots/09.png
p12
g12
s.