((dp0
(I0
I1
tp1
(lp2
Vdirector at large
p3
aVron
p4
aVruss
p5
aVbarbara
p6
aVrichard
p7
aVwrite1
p8
aVwrite2
p9
aVwrite3
p10
as(I0
I0
tp11
(lp12
Vdirector district IX
p13
aVmichelle
p14
aVwritein
p15
as(dp16
(I0
I1
tp17
I1
s(I0
I0
tp18
I1
s(lp19
(lp20
(I0
(I134
I910
I986
I1421
tp21
(lp22
(I00
S''
p23
tp24
a(I01
g23
tp25
a(I01
g23
tp26
a(I01
g23
tp27
a(I01
g23
tp28
a(I01
g23
tp29
a(I01
g23
tp30
a(I01
g23
tp31
atp32
a(I0
(I133
I1487
I985
I1758
tp33
(lp34
(I00
g23
tp35
a(I01
g23
tp36
a(I01
g23
tp37
atp38
aatp39
.