(dp0
V/home/jeff/Desktop/opencount/opencount/opencount/projects/asdfasdf/votedballots_straight/07.png
p1
g1
sV/home/jeff/Desktop/opencount/opencount/opencount/projects/asdfasdf/votedballots_straight/06.png
p2
g2
sV/home/jeff/Desktop/opencount/opencount/opencount/projects/asdfasdf/votedballots_straight/05.png
p3
g3
sV/home/jeff/Desktop/opencount/opencount/opencount/projects/asdfasdf/votedballots_straight/04.png
p4
g4
sV/home/jeff/Desktop/opencount/opencount/opencount/projects/asdfasdf/votedballots_straight/10.png
p5
g5
sV/home/jeff/Desktop/opencount/opencount/opencount/projects/asdfasdf/votedballots_straight/02.png
p6
g6
sV/home/jeff/Desktop/opencount/opencount/opencount/projects/asdfasdf/votedballots_straight/01.png
p7
g7
sV/home/jeff/Desktop/opencount/opencount/opencount/projects/asdfasdf/votedballots_straight/09.png
p8
g8
sV/home/jeff/Desktop/opencount/opencount/opencount/projects/asdfasdf/votedballots_straight/08.png
p9
g9
sV/home/jeff/Desktop/opencount/opencount/opencount/projects/asdfasdf/votedballots_straight/12.png
p10
g10
sV/home/jeff/Desktop/opencount/opencount/opencount/projects/asdfasdf/votedballots_straight/03.png
p11
g11
sV/home/jeff/Desktop/opencount/opencount/opencount/projects/asdfasdf/votedballots_straight/11.png
p12
g12
s.