(dp0
S'ballot'
p1
V/home/jeff/Desktop/opencount/opencount/opencount/projects/asdfasdf/votedballots_straight/06.png
p2
sS'targets'
p3
(lp4
S'0682e2a47698e0e705422e919baabaa344ab213ae8abd9f7df0797c8.2.0.png'
p5
aS'0682e2a47698e0e705422e919baabaa344ab213ae8abd9f7df0797c8.3.0.png'
p6
aS'0682e2a47698e0e705422e919baabaa344ab213ae8abd9f7df0797c8.4.0.png'
p7
aS'0682e2a47698e0e705422e919baabaa344ab213ae8abd9f7df0797c8.5.0.png'
p8
aS'0682e2a47698e0e705422e919baabaa344ab213ae8abd9f7df0797c8.6.0.png'
p9
aS'0682e2a47698e0e705422e919baabaa344ab213ae8abd9f7df0797c8.7.0.png'
p10
aS'0682e2a47698e0e705422e919baabaa344ab213ae8abd9f7df0797c8.9.0.png'
p11
aS'0682e2a47698e0e705422e919baabaa344ab213ae8abd9f7df0797c8.10.0.png'
p12
aS'0682e2a47698e0e705422e919baabaa344ab213ae8abd9f7df0797c8.8.0.png'
p13
asS'template'
p14
V/home/jeff/Desktop/opencount/opencount/opencount/projects/asdfasdf/blankballots_straight/blank.png
p15
sS'flipped'
p16
I00
s.