(dp0
S'ballot'
p1
V/home/jeff/Desktop/opencount/opencount/opencount/projects/asdfasdf/votedballots_straight/09.png
p2
sS'targets'
p3
(lp4
S'2da19f382ea76387def541ccb3fd434df30b1c7d0273e4fb849b9225.2.0.png'
p5
aS'2da19f382ea76387def541ccb3fd434df30b1c7d0273e4fb849b9225.3.0.png'
p6
aS'2da19f382ea76387def541ccb3fd434df30b1c7d0273e4fb849b9225.4.0.png'
p7
aS'2da19f382ea76387def541ccb3fd434df30b1c7d0273e4fb849b9225.5.0.png'
p8
aS'2da19f382ea76387def541ccb3fd434df30b1c7d0273e4fb849b9225.6.0.png'
p9
aS'2da19f382ea76387def541ccb3fd434df30b1c7d0273e4fb849b9225.7.0.png'
p10
aS'2da19f382ea76387def541ccb3fd434df30b1c7d0273e4fb849b9225.9.0.png'
p11
aS'2da19f382ea76387def541ccb3fd434df30b1c7d0273e4fb849b9225.10.0.png'
p12
aS'2da19f382ea76387def541ccb3fd434df30b1c7d0273e4fb849b9225.8.0.png'
p13
asS'template'
p14
V/home/jeff/Desktop/opencount/opencount/opencount/projects/asdfasdf/blankballots_straight/blank.png
p15
sS'flipped'
p16
I00
s.