(dp0
S'ballot'
p1
V/home/jeff/Desktop/opencount/opencount/opencount/projects/asdfasdf/votedballots_straight/10.png
p2
sS'targets'
p3
(lp4
S'443a772aa4a1ff4c01f3448b9c49924c8e5cbeaa3fea62830d303845.2.0.png'
p5
aS'443a772aa4a1ff4c01f3448b9c49924c8e5cbeaa3fea62830d303845.3.0.png'
p6
aS'443a772aa4a1ff4c01f3448b9c49924c8e5cbeaa3fea62830d303845.4.0.png'
p7
aS'443a772aa4a1ff4c01f3448b9c49924c8e5cbeaa3fea62830d303845.5.0.png'
p8
aS'443a772aa4a1ff4c01f3448b9c49924c8e5cbeaa3fea62830d303845.6.0.png'
p9
aS'443a772aa4a1ff4c01f3448b9c49924c8e5cbeaa3fea62830d303845.7.0.png'
p10
aS'443a772aa4a1ff4c01f3448b9c49924c8e5cbeaa3fea62830d303845.9.0.png'
p11
aS'443a772aa4a1ff4c01f3448b9c49924c8e5cbeaa3fea62830d303845.10.0.png'
p12
aS'443a772aa4a1ff4c01f3448b9c49924c8e5cbeaa3fea62830d303845.8.0.png'
p13
asS'template'
p14
V/home/jeff/Desktop/opencount/opencount/opencount/projects/asdfasdf/blankballots_straight/blank.png
p15
sS'flipped'
p16
I00
s.