(dp0
S'ballot'
p1
V/home/jeff/Desktop/opencount/opencount/opencount/projects/asdfasdf/votedballots_straight/05.png
p2
sS'targets'
p3
(lp4
S'45b73fd74985e705d4267d615dab60b2b7767b80de6a1c9cf7d19310.2.0.png'
p5
aS'45b73fd74985e705d4267d615dab60b2b7767b80de6a1c9cf7d19310.3.0.png'
p6
aS'45b73fd74985e705d4267d615dab60b2b7767b80de6a1c9cf7d19310.4.0.png'
p7
aS'45b73fd74985e705d4267d615dab60b2b7767b80de6a1c9cf7d19310.5.0.png'
p8
aS'45b73fd74985e705d4267d615dab60b2b7767b80de6a1c9cf7d19310.6.0.png'
p9
aS'45b73fd74985e705d4267d615dab60b2b7767b80de6a1c9cf7d19310.7.0.png'
p10
aS'45b73fd74985e705d4267d615dab60b2b7767b80de6a1c9cf7d19310.9.0.png'
p11
aS'45b73fd74985e705d4267d615dab60b2b7767b80de6a1c9cf7d19310.10.0.png'
p12
aS'45b73fd74985e705d4267d615dab60b2b7767b80de6a1c9cf7d19310.8.0.png'
p13
asS'template'
p14
V/home/jeff/Desktop/opencount/opencount/opencount/projects/asdfasdf/blankballots_straight/blank.png
p15
sS'flipped'
p16
I00
s.