(dp0
S'ballot'
p1
V/home/jeff/Desktop/opencount/opencount/opencount/projects/asdfasdf/votedballots_straight/12.png
p2
sS'targets'
p3
(lp4
S'5a74665da2f466e24208400150390f04e55620e8afa998cf5734387d.2.0.png'
p5
aS'5a74665da2f466e24208400150390f04e55620e8afa998cf5734387d.3.0.png'
p6
aS'5a74665da2f466e24208400150390f04e55620e8afa998cf5734387d.4.0.png'
p7
aS'5a74665da2f466e24208400150390f04e55620e8afa998cf5734387d.5.0.png'
p8
aS'5a74665da2f466e24208400150390f04e55620e8afa998cf5734387d.6.0.png'
p9
aS'5a74665da2f466e24208400150390f04e55620e8afa998cf5734387d.7.0.png'
p10
aS'5a74665da2f466e24208400150390f04e55620e8afa998cf5734387d.9.0.png'
p11
aS'5a74665da2f466e24208400150390f04e55620e8afa998cf5734387d.10.0.png'
p12
aS'5a74665da2f466e24208400150390f04e55620e8afa998cf5734387d.8.0.png'
p13
asS'template'
p14
V/home/jeff/Desktop/opencount/opencount/opencount/projects/asdfasdf/blankballots_straight/blank.png
p15
sS'flipped'
p16
I00
s.