(dp0
S'ballot'
p1
V/home/jeff/Desktop/opencount/opencount/opencount/projects/asdfasdf/votedballots_straight/01.png
p2
sS'targets'
p3
(lp4
S'6565c007d6f2b3bd0fdc3667ffa2bd24eb5e75c78d62b3c7ebd86b18.2.0.png'
p5
aS'6565c007d6f2b3bd0fdc3667ffa2bd24eb5e75c78d62b3c7ebd86b18.3.0.png'
p6
aS'6565c007d6f2b3bd0fdc3667ffa2bd24eb5e75c78d62b3c7ebd86b18.4.0.png'
p7
aS'6565c007d6f2b3bd0fdc3667ffa2bd24eb5e75c78d62b3c7ebd86b18.5.0.png'
p8
aS'6565c007d6f2b3bd0fdc3667ffa2bd24eb5e75c78d62b3c7ebd86b18.6.0.png'
p9
aS'6565c007d6f2b3bd0fdc3667ffa2bd24eb5e75c78d62b3c7ebd86b18.7.0.png'
p10
aS'6565c007d6f2b3bd0fdc3667ffa2bd24eb5e75c78d62b3c7ebd86b18.9.0.png'
p11
aS'6565c007d6f2b3bd0fdc3667ffa2bd24eb5e75c78d62b3c7ebd86b18.10.0.png'
p12
aS'6565c007d6f2b3bd0fdc3667ffa2bd24eb5e75c78d62b3c7ebd86b18.8.0.png'
p13
asS'template'
p14
V/home/jeff/Desktop/opencount/opencount/opencount/projects/asdfasdf/blankballots_straight/blank.png
p15
sS'flipped'
p16
I00
s.