(dp0
S'ballot'
p1
V/home/jeff/Desktop/opencount/opencount/opencount/projects/asdfasdf/votedballots_straight/02.png
p2
sS'targets'
p3
(lp4
S'68513859f35339b08431703d1af25f3790e09f406a0418ffa931e36f.2.0.png'
p5
aS'68513859f35339b08431703d1af25f3790e09f406a0418ffa931e36f.3.0.png'
p6
aS'68513859f35339b08431703d1af25f3790e09f406a0418ffa931e36f.4.0.png'
p7
aS'68513859f35339b08431703d1af25f3790e09f406a0418ffa931e36f.5.0.png'
p8
aS'68513859f35339b08431703d1af25f3790e09f406a0418ffa931e36f.6.0.png'
p9
aS'68513859f35339b08431703d1af25f3790e09f406a0418ffa931e36f.7.0.png'
p10
aS'68513859f35339b08431703d1af25f3790e09f406a0418ffa931e36f.9.0.png'
p11
aS'68513859f35339b08431703d1af25f3790e09f406a0418ffa931e36f.10.0.png'
p12
aS'68513859f35339b08431703d1af25f3790e09f406a0418ffa931e36f.8.0.png'
p13
asS'template'
p14
V/home/jeff/Desktop/opencount/opencount/opencount/projects/asdfasdf/blankballots_straight/blank.png
p15
sS'flipped'
p16
I00
s.