(dp0
S'ballot'
p1
V/home/jeff/Desktop/opencount/opencount/opencount/projects/asdfasdf/votedballots_straight/08.png
p2
sS'targets'
p3
(lp4
S'689c1d42983794859b4f2b96510d28ef0198845ef3c06b4ff3bc24bb.2.0.png'
p5
aS'689c1d42983794859b4f2b96510d28ef0198845ef3c06b4ff3bc24bb.3.0.png'
p6
aS'689c1d42983794859b4f2b96510d28ef0198845ef3c06b4ff3bc24bb.4.0.png'
p7
aS'689c1d42983794859b4f2b96510d28ef0198845ef3c06b4ff3bc24bb.5.0.png'
p8
aS'689c1d42983794859b4f2b96510d28ef0198845ef3c06b4ff3bc24bb.6.0.png'
p9
aS'689c1d42983794859b4f2b96510d28ef0198845ef3c06b4ff3bc24bb.7.0.png'
p10
aS'689c1d42983794859b4f2b96510d28ef0198845ef3c06b4ff3bc24bb.9.0.png'
p11
aS'689c1d42983794859b4f2b96510d28ef0198845ef3c06b4ff3bc24bb.10.0.png'
p12
aS'689c1d42983794859b4f2b96510d28ef0198845ef3c06b4ff3bc24bb.8.0.png'
p13
asS'template'
p14
V/home/jeff/Desktop/opencount/opencount/opencount/projects/asdfasdf/blankballots_straight/blank.png
p15
sS'flipped'
p16
I00
s.