(dp0
S'ballot'
p1
V/home/jeff/Desktop/opencount/opencount/opencount/projects/asdfasdf/votedballots_straight/04.png
p2
sS'targets'
p3
(lp4
S'b362ac795bd83e4de7f723663b236f6af6e04991f3db140353923b52.2.0.png'
p5
aS'b362ac795bd83e4de7f723663b236f6af6e04991f3db140353923b52.3.0.png'
p6
aS'b362ac795bd83e4de7f723663b236f6af6e04991f3db140353923b52.4.0.png'
p7
aS'b362ac795bd83e4de7f723663b236f6af6e04991f3db140353923b52.5.0.png'
p8
aS'b362ac795bd83e4de7f723663b236f6af6e04991f3db140353923b52.6.0.png'
p9
aS'b362ac795bd83e4de7f723663b236f6af6e04991f3db140353923b52.7.0.png'
p10
aS'b362ac795bd83e4de7f723663b236f6af6e04991f3db140353923b52.9.0.png'
p11
aS'b362ac795bd83e4de7f723663b236f6af6e04991f3db140353923b52.10.0.png'
p12
aS'b362ac795bd83e4de7f723663b236f6af6e04991f3db140353923b52.8.0.png'
p13
asS'template'
p14
V/home/jeff/Desktop/opencount/opencount/opencount/projects/asdfasdf/blankballots_straight/blank.png
p15
sS'flipped'
p16
I00
s.