(dp0
S'ballot'
p1
V/home/jeff/Desktop/opencount/opencount/opencount/projects/asdfasdf/votedballots_straight/03.png
p2
sS'targets'
p3
(lp4
S'bf18d6242ae8dc01e8a69fd7e364df6e75c54041c9d1f9f390f12127.2.0.png'
p5
aS'bf18d6242ae8dc01e8a69fd7e364df6e75c54041c9d1f9f390f12127.3.0.png'
p6
aS'bf18d6242ae8dc01e8a69fd7e364df6e75c54041c9d1f9f390f12127.4.0.png'
p7
aS'bf18d6242ae8dc01e8a69fd7e364df6e75c54041c9d1f9f390f12127.5.0.png'
p8
aS'bf18d6242ae8dc01e8a69fd7e364df6e75c54041c9d1f9f390f12127.6.0.png'
p9
aS'bf18d6242ae8dc01e8a69fd7e364df6e75c54041c9d1f9f390f12127.7.0.png'
p10
aS'bf18d6242ae8dc01e8a69fd7e364df6e75c54041c9d1f9f390f12127.9.0.png'
p11
aS'bf18d6242ae8dc01e8a69fd7e364df6e75c54041c9d1f9f390f12127.10.0.png'
p12
aS'bf18d6242ae8dc01e8a69fd7e364df6e75c54041c9d1f9f390f12127.8.0.png'
p13
asS'template'
p14
V/home/jeff/Desktop/opencount/opencount/opencount/projects/asdfasdf/blankballots_straight/blank.png
p15
sS'flipped'
p16
I00
s.