(dp0
S'ballot'
p1
V/home/jeff/Desktop/opencount/opencount/opencount/projects/asdfasdf/votedballots_straight/07.png
p2
sS'targets'
p3
(lp4
S'd6c6c0b505c9155eec25b5206a0652cafa505c4c227da8dc57304611.2.0.png'
p5
aS'd6c6c0b505c9155eec25b5206a0652cafa505c4c227da8dc57304611.3.0.png'
p6
aS'd6c6c0b505c9155eec25b5206a0652cafa505c4c227da8dc57304611.4.0.png'
p7
aS'd6c6c0b505c9155eec25b5206a0652cafa505c4c227da8dc57304611.5.0.png'
p8
aS'd6c6c0b505c9155eec25b5206a0652cafa505c4c227da8dc57304611.6.0.png'
p9
aS'd6c6c0b505c9155eec25b5206a0652cafa505c4c227da8dc57304611.7.0.png'
p10
aS'd6c6c0b505c9155eec25b5206a0652cafa505c4c227da8dc57304611.9.0.png'
p11
aS'd6c6c0b505c9155eec25b5206a0652cafa505c4c227da8dc57304611.10.0.png'
p12
aS'd6c6c0b505c9155eec25b5206a0652cafa505c4c227da8dc57304611.8.0.png'
p13
asS'template'
p14
V/home/jeff/Desktop/opencount/opencount/opencount/projects/asdfasdf/blankballots_straight/blank.png
p15
sS'flipped'
p16
I00
s.