(dp0
S'ballot'
p1
V/home/jeff/Desktop/opencount/opencount/opencount/projects/asdfasdf/votedballots_straight/11.png
p2
sS'targets'
p3
(lp4
S'fe333913a086d8e4d56d48dd25c8168117a1e6e32495b9ec924897b5.2.0.png'
p5
aS'fe333913a086d8e4d56d48dd25c8168117a1e6e32495b9ec924897b5.3.0.png'
p6
aS'fe333913a086d8e4d56d48dd25c8168117a1e6e32495b9ec924897b5.4.0.png'
p7
aS'fe333913a086d8e4d56d48dd25c8168117a1e6e32495b9ec924897b5.5.0.png'
p8
aS'fe333913a086d8e4d56d48dd25c8168117a1e6e32495b9ec924897b5.6.0.png'
p9
aS'fe333913a086d8e4d56d48dd25c8168117a1e6e32495b9ec924897b5.7.0.png'
p10
aS'fe333913a086d8e4d56d48dd25c8168117a1e6e32495b9ec924897b5.9.0.png'
p11
aS'fe333913a086d8e4d56d48dd25c8168117a1e6e32495b9ec924897b5.10.0.png'
p12
aS'fe333913a086d8e4d56d48dd25c8168117a1e6e32495b9ec924897b5.8.0.png'
p13
asS'template'
p14
V/home/jeff/Desktop/opencount/opencount/opencount/projects/asdfasdf/blankballots_straight/blank.png
p15
sS'flipped'
p16
I00
s.